; Function Attrs: mustprogress uwtable
define void @_ZN21PreferenceEditorFrame35on_preferenceLineEdit_returnPressedEv(ptr noundef nonnull align 8 dereferenceable(120) %0) local_unnamed_addr #0 align 2 {
  %2 = getelementptr inbounds i8, ptr %0, i64 56
  %3 = load ptr, ptr %2, align 8
  %4 = getelementptr inbounds i8, ptr %3, i64 56
  %5 = load ptr, ptr %4, align 8
  %6 = tail call noundef ptr @_ZNK16QDialogButtonBox6buttonENS_14StandardButtonE(ptr noundef nonnull align 8 dereferenceable(40) %5, i32 noundef 1024)
  %7 = getelementptr inbounds i8, ptr %6, i64 32
  %8 = load ptr, ptr %7, align 8
  %9 = getelementptr inbounds i8, ptr %8, i64 8
  %10 = load i32, ptr %9, align 8
  %11 = and i32 %10, 1
  %.not.i = icmp eq i32 %11, 0
  br i1 %.not.i, label %12, label %13

12:                                               ; preds = %1
  tail call void @_ZN21PreferenceEditorFrame21on_buttonBox_acceptedEv(ptr noundef nonnull align 8 dereferenceable(120) %0)
  br label %13

13:                                               ; preds = %12, %1
  ret void
}